target datalayout = "e-m:e-p270:32:32-p271:32:32-p272:64:64-i64:64-i128:128-f80:128-n8:16:32:64-S128"
target triple = "x86_64-pc-linux-gnu"

%struct.H5FL_seq_head_t = type { %struct.H5FL_blk_head_t, i64 }
%struct.H5FL_blk_head_t = type { i8, i32, i32, i64, ptr, ptr }
%struct.H5FL_reg_head_t = type { i8, i32, i32, ptr, i64, ptr }
%struct.H5FS_t = type { %struct.H5C_cache_entry_t, i64, i64, i64, i64, i32, i16, i32, i32, i32, i64, i64, i64, i64, i32, i64, i64, ptr, i8, i32, i8, i8, i32, i64, i64, i64, ptr }
%struct.H5C_cache_entry_t = type { ptr, i64, i64, ptr, i8, ptr, i8, i8, i8, i8, i32, i8, i8, i8, i8, i8, i32, ptr, i32, i32, i32, i32, i32, i8, i8, ptr, ptr, ptr, ptr, ptr, ptr, i8, i32, i8, i64, ptr, i64, i64, i32, i8, i32, i32, i8, ptr, ptr, ptr }
%struct.H5FS_section_class_t = type { i32, i64, i32, ptr, ptr, ptr, ptr, ptr, ptr, ptr, ptr, ptr, ptr, ptr, ptr, ptr, ptr }

@H5_H5FS_section_class_t_seq_free_list = global %struct.H5FL_seq_head_t { %struct.H5FL_blk_head_t { i8 0, i32 0, i32 0, i64 0, ptr @.str, ptr null }, i64 136 }, align 8
@H5_H5FS_t_reg_free_list = global %struct.H5FL_reg_head_t { i8 0, i32 0, i32 0, ptr @.str.1, i64 416, ptr null }, align 8
@.str.2 = private unnamed_addr constant [98 x i8] c"generated/home/dtcxzyw/WorkSpace/Projects/compilers/llvm-opt-benchmark/bench/hdf5/hdf5/src/H5FS.c\00", align 1
@H5E_RESOURCE_g = external global i64, align 8
@H5E_NOSPACE_g = external global i64, align 8
@.str.3 = private unnamed_addr constant [50 x i8] c"memory allocation failed for free space free list\00", align 1
@H5E_CANTINIT_g = external global i64, align 8
@__func__.H5FS__new = private unnamed_addr constant [10 x i8] c"H5FS__new\00", align 1
@.str.21 = private unnamed_addr constant [60 x i8] c"memory allocation failed for free space section class array\00", align 1
@.str.22 = private unnamed_addr constant [35 x i8] c"unable to initialize section class\00", align 1

; Function Attrs: nounwind uwtable
define ptr @H5FS__new(ptr noundef %0, i16 noundef zeroext %1, ptr noundef %2, ptr noundef %3) #0 {
  %5 = alloca ptr, align 8
  %6 = alloca i16, align 2
  %7 = alloca ptr, align 8
  %8 = alloca ptr, align 8
  %9 = alloca ptr, align 8
  %10 = alloca i64, align 8
  %11 = alloca ptr, align 8
  %12 = alloca i8, align 1
  store ptr %0, ptr %5, align 8
  store i16 %1, ptr %6, align 2
  store ptr %2, ptr %7, align 8
  store ptr %3, ptr %8, align 8
  store ptr null, ptr %9, align 8
  store ptr null, ptr %11, align 8
  store i8 0, ptr %12, align 1
  %13 = call noalias ptr @H5FL_reg_calloc(ptr noundef @H5_H5FS_t_reg_free_list)
  store ptr %13, ptr %9, align 8
  %14 = icmp eq ptr null, %13
  br i1 %14, label %15, label %30

15:                                               ; preds = %4
  br label %16

16:                                               ; preds = %15
  br label %17

17:                                               ; preds = %16
  br label %18

18:                                               ; preds = %17
  %19 = load i64, ptr @H5E_RESOURCE_g, align 8
  %20 = load i64, ptr @H5E_NOSPACE_g, align 8
  %21 = call i32 (ptr, ptr, i32, i64, i64, ptr, ...) @H5E_printf_stack(ptr noundef @.str.2, ptr noundef @__func__.H5FS__new, i32 noundef 594, i64 noundef %19, i64 noundef %20, ptr noundef @.str.3)
  br label %22

22:                                               ; preds = %18
  store i8 1, ptr %12, align 1
  %23 = load i8, ptr %12, align 1
  %24 = trunc i8 %23 to i1
  %25 = zext i1 %24 to i8
  store i8 %25, ptr %12, align 1
  br label %26

26:                                               ; preds = %22
  br label %27

27:                                               ; preds = %26
  store ptr null, ptr %11, align 8
  br label %189

28:                                               ; No predecessors!
  br label %29

29:                                               ; preds = %28
  br label %30

30:                                               ; preds = %29, %4
  br label %31

31:                                               ; preds = %30
  %32 = load i16, ptr %6, align 2
  %33 = load ptr, ptr %9, align 8
  %34 = getelementptr inbounds %struct.H5FS_t, ptr %33, i32 0, i32 6
  store i16 %32, ptr %34, align 4
  br label %35

35:                                               ; preds = %31
  %36 = load i16, ptr %6, align 2
  %37 = zext i16 %36 to i32
  %38 = icmp sgt i32 %37, 0
  br i1 %38, label %39, label %144

39:                                               ; preds = %35
  %40 = load i16, ptr %6, align 2
  %41 = zext i16 %40 to i64
  %42 = call noalias ptr @H5FL_seq_malloc(ptr noundef @H5_H5FS_section_class_t_seq_free_list, i64 noundef %41)
  %43 = load ptr, ptr %9, align 8
  %44 = getelementptr inbounds %struct.H5FS_t, ptr %43, i32 0, i32 26
  store ptr %42, ptr %44, align 8
  %45 = icmp eq ptr null, %42
  br i1 %45, label %46, label %61

46:                                               ; preds = %39
  br label %47

47:                                               ; preds = %46
  br label %48

48:                                               ; preds = %47
  br label %49

49:                                               ; preds = %48
  %50 = load i64, ptr @H5E_RESOURCE_g, align 8
  %51 = load i64, ptr @H5E_NOSPACE_g, align 8
  %52 = call i32 (ptr, ptr, i32, i64, i64, ptr, ...) @H5E_printf_stack(ptr noundef @.str.2, ptr noundef @__func__.H5FS__new, i32 noundef 601, i64 noundef %50, i64 noundef %51, ptr noundef @.str.21)
  br label %53

53:                                               ; preds = %49
  store i8 1, ptr %12, align 1
  %54 = load i8, ptr %12, align 1
  %55 = trunc i8 %54 to i1
  %56 = zext i1 %55 to i8
  store i8 %56, ptr %12, align 1
  br label %57

57:                                               ; preds = %53
  br label %58

58:                                               ; preds = %57
  store ptr null, ptr %11, align 8
  br label %189

59:                                               ; No predecessors!
  br label %60

60:                                               ; preds = %59
  br label %61

61:                                               ; preds = %60, %39
  store i64 0, ptr %10, align 8
  br label %62

62:                                               ; preds = %140, %61
  %63 = load i64, ptr %10, align 8
  %64 = load i16, ptr %6, align 2
  %65 = zext i16 %64 to i64
  %66 = icmp ult i64 %63, %65
  br i1 %66, label %67, label %143

67:                                               ; preds = %62
  %68 = load ptr, ptr %9, align 8
  %69 = getelementptr inbounds %struct.H5FS_t, ptr %68, i32 0, i32 26
  %70 = load ptr, ptr %69, align 8
  %71 = load i64, ptr %10, align 8
  %72 = getelementptr inbounds %struct.H5FS_section_class_t, ptr %70, i64 %71
  %73 = load ptr, ptr %7, align 8
  %74 = load i64, ptr %10, align 8
  %75 = getelementptr inbounds ptr, ptr %73, i64 %74
  %76 = load ptr, ptr %75, align 8
  call void @llvm.memcpy.p0.p0.i64(ptr align 8 %72, ptr align 8 %76, i64 136, i1 false)
  %77 = load ptr, ptr %9, align 8
  %78 = getelementptr inbounds %struct.H5FS_t, ptr %77, i32 0, i32 26
  %79 = load ptr, ptr %78, align 8
  %80 = load i64, ptr %10, align 8
  %81 = getelementptr inbounds %struct.H5FS_section_class_t, ptr %79, i64 %80
  %82 = getelementptr inbounds %struct.H5FS_section_class_t, ptr %81, i32 0, i32 4
  %83 = load ptr, ptr %82, align 8
  %84 = icmp ne ptr %83, null
  br i1 %84, label %85, label %117

85:                                               ; preds = %67
  %86 = load ptr, ptr %9, align 8
  %87 = getelementptr inbounds %struct.H5FS_t, ptr %86, i32 0, i32 26
  %88 = load ptr, ptr %87, align 8
  %89 = load i64, ptr %10, align 8
  %90 = getelementptr inbounds %struct.H5FS_section_class_t, ptr %88, i64 %89
  %91 = getelementptr inbounds %struct.H5FS_section_class_t, ptr %90, i32 0, i32 4
  %92 = load ptr, ptr %91, align 8
  %93 = load ptr, ptr %9, align 8
  %94 = getelementptr inbounds %struct.H5FS_t, ptr %93, i32 0, i32 26
  %95 = load ptr, ptr %94, align 8
  %96 = load i64, ptr %10, align 8
  %97 = getelementptr inbounds %struct.H5FS_section_class_t, ptr %95, i64 %96
  %98 = load ptr, ptr %8, align 8
  %99 = call i32 %92(ptr noundef %97, ptr noundef %98)
  %100 = icmp slt i32 %99, 0
  br i1 %100, label %101, label %116

101:                                              ; preds = %85
  br label %102

102:                                              ; preds = %101
  br label %103

103:                                              ; preds = %102
  br label %104

104:                                              ; preds = %103
  %105 = load i64, ptr @H5E_RESOURCE_g, align 8
  %106 = load i64, ptr @H5E_CANTINIT_g, align 8
  %107 = call i32 (ptr, ptr, i32, i64, i64, ptr, ...) @H5E_printf_stack(ptr noundef @.str.2, ptr noundef @__func__.H5FS__new, i32 noundef 614, i64 noundef %105, i64 noundef %106, ptr noundef @.str.22)
  br label %108

108:                                              ; preds = %104
  store i8 1, ptr %12, align 1
  %109 = load i8, ptr %12, align 1
  %110 = trunc i8 %109 to i1
  %111 = zext i1 %110 to i8
  store i8 %111, ptr %12, align 1
  br label %112

112:                                              ; preds = %108
  br label %113

113:                                              ; preds = %112
  store ptr null, ptr %11, align 8
  br label %189

114:                                              ; No predecessors!
  br label %115

115:                                              ; preds = %114
  br label %116

116:                                              ; preds = %115, %85
  br label %117

117:                                              ; preds = %116, %67
  %118 = load ptr, ptr %9, align 8
  %119 = getelementptr inbounds %struct.H5FS_t, ptr %118, i32 0, i32 26
  %120 = load ptr, ptr %119, align 8
  %121 = load i64, ptr %10, align 8
  %122 = getelementptr inbounds %struct.H5FS_section_class_t, ptr %120, i64 %121
  %123 = getelementptr inbounds %struct.H5FS_section_class_t, ptr %122, i32 0, i32 1
  %124 = load i64, ptr %123, align 8
  %125 = load ptr, ptr %9, align 8
  %126 = getelementptr inbounds %struct.H5FS_t, ptr %125, i32 0, i32 23
  %127 = load i64, ptr %126, align 8
  %128 = icmp ugt i64 %124, %127
  br i1 %128, label %129, label %139

129:                                              ; preds = %117
  %130 = load ptr, ptr %9, align 8
  %131 = getelementptr inbounds %struct.H5FS_t, ptr %130, i32 0, i32 26
  %132 = load ptr, ptr %131, align 8
  %133 = load i64, ptr %10, align 8
  %134 = getelementptr inbounds %struct.H5FS_section_class_t, ptr %132, i64 %133
  %135 = getelementptr inbounds %struct.H5FS_section_class_t, ptr %134, i32 0, i32 1
  %136 = load i64, ptr %135, align 8
  %137 = load ptr, ptr %9, align 8
  %138 = getelementptr inbounds %struct.H5FS_t, ptr %137, i32 0, i32 23
  store i64 %136, ptr %138, align 8
  br label %139

139:                                              ; preds = %129, %117
  br label %140

140:                                              ; preds = %139
  %141 = load i64, ptr %10, align 8
  %142 = add i64 %141, 1
  store i64 %142, ptr %10, align 8
  br label %62

143:                                              ; preds = %62
  br label %144

144:                                              ; preds = %143, %35
  %145 = load ptr, ptr %9, align 8
  %146 = getelementptr inbounds %struct.H5FS_t, ptr %145, i32 0, i32 15
  store i64 -1, ptr %146, align 8
  %147 = load ptr, ptr %5, align 8
  %148 = call zeroext i8 @H5F_sizeof_size(ptr noundef %147)
  %149 = zext i8 %148 to i32
  %150 = add i32 10, %149
  %151 = load ptr, ptr %5, align 8
  %152 = call zeroext i8 @H5F_sizeof_size(ptr noundef %151)
  %153 = zext i8 %152 to i32
  %154 = add i32 %150, %153
  %155 = load ptr, ptr %5, align 8
  %156 = call zeroext i8 @H5F_sizeof_size(ptr noundef %155)
  %157 = zext i8 %156 to i32
  %158 = add i32 %154, %157
  %159 = load ptr, ptr %5, align 8
  %160 = call zeroext i8 @H5F_sizeof_size(ptr noundef %159)
  %161 = zext i8 %160 to i32
  %162 = add i32 %158, %161
  %163 = add i32 %162, 2
  %164 = add i32 %163, 2
  %165 = add i32 %164, 2
  %166 = add i32 %165, 2
  %167 = load ptr, ptr %5, align 8
  %168 = call zeroext i8 @H5F_sizeof_size(ptr noundef %167)
  %169 = zext i8 %168 to i32
  %170 = add i32 %166, %169
  %171 = load ptr, ptr %5, align 8
  %172 = call zeroext i8 @H5F_sizeof_addr(ptr noundef %171)
  %173 = zext i8 %172 to i32
  %174 = add i32 %170, %173
  %175 = load ptr, ptr %5, align 8
  %176 = call zeroext i8 @H5F_sizeof_size(ptr noundef %175)
  %177 = zext i8 %176 to i32
  %178 = add i32 %174, %177
  %179 = load ptr, ptr %5, align 8
  %180 = call zeroext i8 @H5F_sizeof_size(ptr noundef %179)
  %181 = zext i8 %180 to i32
  %182 = add i32 %178, %181
  %183 = zext i32 %182 to i64
  %184 = load ptr, ptr %9, align 8
  %185 = getelementptr inbounds %struct.H5FS_t, ptr %184, i32 0, i32 16
  store i64 %183, ptr %185, align 8
  %186 = load ptr, ptr %9, align 8
  %187 = getelementptr inbounds %struct.H5FS_t, ptr %186, i32 0, i32 11
  store i64 -1, ptr %187, align 8
  %188 = load ptr, ptr %9, align 8
  store ptr %188, ptr %11, align 8
  br label %189

189:                                              ; preds = %144, %113, %58, %27
  %190 = load ptr, ptr %11, align 8
  %191 = icmp ne ptr %190, null
  br i1 %191, label %211, label %192

192:                                              ; preds = %189
  %193 = load ptr, ptr %9, align 8
  %194 = icmp ne ptr %193, null
  br i1 %194, label %195, label %210

195:                                              ; preds = %192
  %196 = load ptr, ptr %9, align 8
  %197 = getelementptr inbounds %struct.H5FS_t, ptr %196, i32 0, i32 26
  %198 = load ptr, ptr %197, align 8
  %199 = icmp ne ptr %198, null
  br i1 %199, label %200, label %207

200:                                              ; preds = %195
  %201 = load ptr, ptr %9, align 8
  %202 = getelementptr inbounds %struct.H5FS_t, ptr %201, i32 0, i32 26
  %203 = load ptr, ptr %202, align 8
  %204 = call ptr @H5FL_seq_free(ptr noundef @H5_H5FS_section_class_t_seq_free_list, ptr noundef %203)
  %205 = load ptr, ptr %9, align 8
  %206 = getelementptr inbounds %struct.H5FS_t, ptr %205, i32 0, i32 26
  store ptr %204, ptr %206, align 8
  br label %207

207:                                              ; preds = %200, %195
  %208 = load ptr, ptr %9, align 8
  %209 = call ptr @H5FL_reg_free(ptr noundef @H5_H5FS_t_reg_free_list, ptr noundef %208)
  store ptr %209, ptr %9, align 8
  br label %210

210:                                              ; preds = %207, %192
  br label %211

211:                                              ; preds = %210, %189
  %212 = load ptr, ptr %11, align 8
  ret ptr %212
}