; Function Attrs: nounwind uwtable
define ptr @H5FS__new(ptr noundef %0, i16 noundef zeroext %1, ptr nocapture noundef readonly %2, ptr noundef %3) local_unnamed_addr #0 {
  %5 = tail call noalias ptr @H5FL_reg_calloc(ptr noundef nonnull @H5_H5FS_t_reg_free_list) #5
  %6 = icmp eq ptr %5, null
  br i1 %6, label %7, label %11

7:                                                ; preds = %4
  %8 = load i64, ptr @H5E_RESOURCE_g, align 8
  %9 = load i64, ptr @H5E_NOSPACE_g, align 8
  %10 = tail call i32 (ptr, ptr, i32, i64, i64, ptr, ...) @H5E_printf_stack(ptr noundef nonnull @.str.2, ptr noundef nonnull @__func__.H5FS__new, i32 noundef 594, i64 noundef %8, i64 noundef %9, ptr noundef nonnull @.str.3) #5
  br label %.thread

11:                                               ; preds = %4
  %12 = getelementptr inbounds i8, ptr %5, i64 284
  store i16 %1, ptr %12, align 4
  %.not = icmp eq i16 %1, 0
  br i1 %.not, label %.loopexit, label %13

13:                                               ; preds = %11
  %14 = zext i16 %1 to i64
  %15 = tail call noalias ptr @H5FL_seq_malloc(ptr noundef nonnull @H5_H5FS_section_class_t_seq_free_list, i64 noundef %14) #5
  %16 = getelementptr inbounds i8, ptr %5, i64 408
  store ptr %15, ptr %16, align 8
  %17 = icmp eq ptr %15, null
  br i1 %17, label %.thread59, label %.preheader

.preheader:                                       ; preds = %13
  %18 = getelementptr inbounds i8, ptr %5, i64 384
  br label %22

.thread59:                                        ; preds = %13
  %19 = load i64, ptr @H5E_RESOURCE_g, align 8
  %20 = load i64, ptr @H5E_NOSPACE_g, align 8
  %21 = tail call i32 (ptr, ptr, i32, i64, i64, ptr, ...) @H5E_printf_stack(ptr noundef nonnull @.str.2, ptr noundef nonnull @__func__.H5FS__new, i32 noundef 601, i64 noundef %19, i64 noundef %20, ptr noundef nonnull @.str.21) #5
  br label %74

22:                                               ; preds = %.preheader, %39
  %23 = phi ptr [ %15, %.preheader ], [ %33, %39 ]
  %.04757 = phi i64 [ 0, %.preheader ], [ %40, %39 ]
  %24 = getelementptr inbounds %struct.H5FS_section_class_t, ptr %23, i64 %.04757
  %25 = getelementptr inbounds ptr, ptr %2, i64 %.04757
  %26 = load ptr, ptr %25, align 8
  tail call void @llvm.memcpy.p0.p0.i64(ptr noundef nonnull align 8 dereferenceable(136) %24, ptr noundef nonnull align 8 dereferenceable(136) %26, i64 136, i1 false)
  %27 = getelementptr inbounds i8, ptr %24, i64 32
  %28 = load ptr, ptr %27, align 8
  %.not52 = icmp eq ptr %28, null
  br i1 %.not52, label %32, label %29

29:                                               ; preds = %22
  %30 = tail call i32 %28(ptr noundef nonnull %24, ptr noundef %3) #5
  %31 = icmp slt i32 %30, 0
  br i1 %31, label %68, label %._crit_edge

._crit_edge:                                      ; preds = %29
  %.pre = load ptr, ptr %16, align 8
  br label %32

32:                                               ; preds = %._crit_edge, %22
  %33 = phi ptr [ %.pre, %._crit_edge ], [ %23, %22 ]
  %34 = getelementptr inbounds %struct.H5FS_section_class_t, ptr %33, i64 %.04757, i32 1
  %35 = load i64, ptr %34, align 8
  %36 = load i64, ptr %18, align 8
  %37 = icmp ugt i64 %35, %36
  br i1 %37, label %38, label %39

38:                                               ; preds = %32
  store i64 %35, ptr %18, align 8
  br label %39

39:                                               ; preds = %32, %38
  %40 = add nuw nsw i64 %.04757, 1
  %exitcond.not = icmp eq i64 %40, %14
  br i1 %exitcond.not, label %.loopexit, label %22

.loopexit:                                        ; preds = %39, %11
  %41 = getelementptr inbounds i8, ptr %5, i64 344
  store i64 -1, ptr %41, align 8
  %42 = tail call zeroext i8 @H5F_sizeof_size(ptr noundef %0) #5
  %43 = zext i8 %42 to i64
  %44 = tail call zeroext i8 @H5F_sizeof_size(ptr noundef %0) #5
  %45 = zext i8 %44 to i64
  %46 = tail call zeroext i8 @H5F_sizeof_size(ptr noundef %0) #5
  %47 = zext i8 %46 to i64
  %48 = tail call zeroext i8 @H5F_sizeof_size(ptr noundef %0) #5
  %49 = zext i8 %48 to i64
  %50 = tail call zeroext i8 @H5F_sizeof_size(ptr noundef %0) #5
  %51 = zext i8 %50 to i64
  %52 = tail call zeroext i8 @H5F_sizeof_addr(ptr noundef %0) #5
  %53 = zext i8 %52 to i64
  %54 = tail call zeroext i8 @H5F_sizeof_size(ptr noundef %0) #5
  %55 = zext i8 %54 to i64
  %56 = tail call zeroext i8 @H5F_sizeof_size(ptr noundef %0) #5
  %57 = zext i8 %56 to i64
  %58 = add nuw nsw i64 %43, 18
  %59 = add nuw nsw i64 %58, %45
  %60 = add nuw nsw i64 %59, %47
  %61 = add nuw nsw i64 %60, %49
  %62 = add nuw nsw i64 %61, %51
  %63 = add nuw nsw i64 %62, %53
  %64 = add nuw nsw i64 %63, %55
  %65 = add nuw nsw i64 %64, %57
  %66 = getelementptr inbounds i8, ptr %5, i64 352
  store i64 %65, ptr %66, align 8
  %67 = getelementptr inbounds i8, ptr %5, i64 312
  store i64 -1, ptr %67, align 8
  br label %.thread

68:                                               ; preds = %29
  %69 = load i64, ptr @H5E_RESOURCE_g, align 8
  %70 = load i64, ptr @H5E_CANTINIT_g, align 8
  %71 = tail call i32 (ptr, ptr, i32, i64, i64, ptr, ...) @H5E_printf_stack(ptr noundef nonnull @.str.2, ptr noundef nonnull @__func__.H5FS__new, i32 noundef 614, i64 noundef %69, i64 noundef %70, ptr noundef nonnull @.str.22) #5
  %.pre58 = load ptr, ptr %16, align 8
  %.not53 = icmp eq ptr %.pre58, null
  br i1 %.not53, label %74, label %72

72:                                               ; preds = %68
  %73 = tail call ptr @H5FL_seq_free(ptr noundef nonnull @H5_H5FS_section_class_t_seq_free_list, ptr noundef nonnull %.pre58) #5
  store ptr %73, ptr %16, align 8
  br label %74

74:                                               ; preds = %.thread59, %72, %68
  %75 = tail call ptr @H5FL_reg_free(ptr noundef nonnull @H5_H5FS_t_reg_free_list, ptr noundef nonnull %5) #5
  br label %.thread

.thread:                                          ; preds = %7, %.loopexit, %74
  %.056 = phi ptr [ null, %74 ], [ %5, %.loopexit ], [ null, %7 ]
  ret ptr %.056
}